target datalayout = "e-m:e-p270:32:32-p271:32:32-p272:64:64-i64:64-i128:128-f80:128-n8:16:32:64-S128"
target triple = "x86_64-pc-linux-gnu"

; Function Attrs: nounwind uwtable
define dso_local ptr @lpGetValue(ptr noundef %0, ptr noundef %1, ptr noundef %2) #0 {
  %4 = alloca ptr, align 8
  %5 = alloca ptr, align 8
  %6 = alloca ptr, align 8
  %7 = alloca ptr, align 8
  %8 = alloca i64, align 8
  store ptr %0, ptr %4, align 8, !tbaa !5
  store ptr %1, ptr %5, align 8, !tbaa !21
  store ptr %2, ptr %6, align 8, !tbaa !23
  call void @llvm.lifetime.start.p0(i64 8, ptr %7) #10
  call void @llvm.lifetime.start.p0(i64 8, ptr %8) #10
  %9 = load ptr, ptr %4, align 8, !tbaa !5
  %10 = call ptr @lpGet(ptr noundef %9, ptr noundef %8, ptr noundef null)
  store ptr %10, ptr %7, align 8, !tbaa !5
  %11 = load ptr, ptr %7, align 8, !tbaa !5
  %12 = icmp ne ptr %11, null
  br i1 %12, label %13, label %17

13:                                               ; preds = %3
  %14 = load i64, ptr %8, align 8, !tbaa !10
  %15 = trunc i64 %14 to i32
  %16 = load ptr, ptr %5, align 8, !tbaa !21
  store i32 %15, ptr %16, align 4, !tbaa !15
  br label %20

17:                                               ; preds = %3
  %18 = load i64, ptr %8, align 8, !tbaa !10
  %19 = load ptr, ptr %6, align 8, !tbaa !23
  store i64 %18, ptr %19, align 8, !tbaa !25
  br label %20

20:                                               ; preds = %17, %13
  %21 = load ptr, ptr %7, align 8, !tbaa !5
  call void @llvm.lifetime.end.p0(i64 8, ptr %8) #10
  call void @llvm.lifetime.end.p0(i64 8, ptr %7) #10
  ret ptr %21
}