; Function Attrs: nounwind uwtable
define dso_local ptr @lpGetValue(ptr noundef captures(address, ret: address, provenance) %0, ptr noundef writeonly captures(none) %1, ptr noundef writeonly captures(none) %2) local_unnamed_addr #3 {
  %4 = alloca i64, align 8
  call void @llvm.lifetime.start.p0(i64 8, ptr nonnull %4) #20
  %5 = call ptr @lpGet(ptr noundef %0, ptr noundef nonnull %4, ptr noundef null)
  %.not = icmp eq ptr %5, null
  %6 = load i64, ptr %4, align 8, !tbaa !10
  br i1 %.not, label %9, label %7

7:                                                ; preds = %3
  %8 = trunc i64 %6 to i32
  store i32 %8, ptr %1, align 4, !tbaa !17
  br label %10

9:                                                ; preds = %3
  store i64 %6, ptr %2, align 8, !tbaa !19
  br label %10

10:                                               ; preds = %9, %7
  call void @llvm.lifetime.end.p0(i64 8, ptr nonnull %4) #20
  ret ptr %5
}